target datalayout = "e-m:e-p270:32:32-p271:32:32-p272:64:64-i64:64-i128:128-f80:128-n8:16:32:64-S128"
target triple = "x86_64-pc-linux-gnu"

%struct.conn = type { i32, ptr, ptr }

@.str.62 = private unnamed_addr constant [10 x i8] c"testapp.c\00", align 1
@.str.225 = private unnamed_addr constant [10 x i8] c"c != NULL\00", align 1
@__PRETTY_FUNCTION__.tcp_write = private unnamed_addr constant [55 x i8] c"ssize_t tcp_write(struct conn *, const void *, size_t)\00", align 1

; Function Attrs: nounwind uwtable
define internal i64 @tcp_write(ptr noundef %0, ptr noundef %1, i64 noundef %2) #0 {
  %4 = alloca ptr, align 8
  %5 = alloca ptr, align 8
  %6 = alloca i64, align 8
  store ptr %0, ptr %4, align 8, !tbaa !39
  store ptr %1, ptr %5, align 8, !tbaa !4
  store i64 %2, ptr %6, align 8, !tbaa !36
  %7 = load ptr, ptr %4, align 8, !tbaa !39
  %8 = icmp ne ptr %7, null
  br i1 %8, label %9, label %10

9:                                                ; preds = %3
  br label %11

10:                                               ; preds = %3
  call void @__assert_fail(ptr noundef @.str.225, ptr noundef @.str.62, i32 noundef 62, ptr noundef @__PRETTY_FUNCTION__.tcp_write) #13
  unreachable

11:                                               ; preds = %9
  %12 = load ptr, ptr %4, align 8, !tbaa !39
  %13 = getelementptr inbounds nuw %struct.conn, ptr %12, i32 0, i32 0
  %14 = load i32, ptr %13, align 8, !tbaa !43
  %15 = load ptr, ptr %5, align 8, !tbaa !4
  %16 = load i64, ptr %6, align 8, !tbaa !36
  %17 = call i64 @write(i32 noundef %14, ptr noundef %15, i64 noundef %16)
  ret i64 %17
}